; Function Attrs: nounwind uwtable
define i32 @Wln_NtkDupDfs_rec(ptr noundef %0, ptr noundef %1, i32 noundef %2) local_unnamed_addr #0 {
  %4 = icmp eq i32 %2, 0
  br i1 %4, label %31, label %5

5:                                                ; preds = %3
  %6 = getelementptr i8, ptr %1, i64 208
  %.val25 = load ptr, ptr %6, align 8, !tbaa !17
  %7 = sext i32 %2 to i64
  %8 = getelementptr inbounds i32, ptr %.val25, i64 %7
  %9 = load i32, ptr %8, align 4, !tbaa !22
  %.not = icmp eq i32 %9, 0
  br i1 %.not, label %.preheader, label %31

.preheader:                                       ; preds = %5
  %10 = getelementptr i8, ptr %1, i64 88
  %.val26 = load ptr, ptr %10, align 8, !tbaa !25
  %11 = getelementptr inbounds %struct.Wln_Vec_t_, ptr %.val26, i64 %7, i32 1
  %12 = load i32, ptr %11, align 4, !tbaa !43
  %13 = icmp sgt i32 %12, 0
  br i1 %13, label %.lr.ph, label %.critedge

.lr.ph:                                           ; preds = %.preheader, %25
  %.val30 = phi ptr [ %.val, %25 ], [ %.val26, %.preheader ]
  %indvars.iv = phi i64 [ %indvars.iv.next, %25 ], [ 0, %.preheader ]
  %14 = phi i32 [ %27, %25 ], [ %12, %.preheader ]
  %15 = icmp sgt i32 %14, 2
  %16 = getelementptr inbounds %struct.Wln_Vec_t_, ptr %.val30, i64 %7, i32 2
  br i1 %15, label %17, label %20

17:                                               ; preds = %.lr.ph
  %18 = load ptr, ptr %16, align 8, !tbaa !24
  %19 = getelementptr inbounds nuw i32, ptr %18, i64 %indvars.iv
  br label %Wln_ObjFanin.exit

20:                                               ; preds = %.lr.ph
  %21 = getelementptr inbounds nuw [2 x i32], ptr %16, i64 0, i64 %indvars.iv
  br label %Wln_ObjFanin.exit

Wln_ObjFanin.exit:                                ; preds = %17, %20
  %.in.i = phi ptr [ %19, %17 ], [ %21, %20 ]
  %22 = load i32, ptr %.in.i, align 4, !tbaa !24
  %.not22 = icmp eq i32 %22, 0
  br i1 %.not22, label %25, label %23

23:                                               ; preds = %Wln_ObjFanin.exit
  %24 = tail call i32 @Wln_NtkDupDfs_rec(ptr noundef %0, ptr noundef nonnull %1, i32 noundef %22)
  %.val.pre = load ptr, ptr %10, align 8, !tbaa !25
  br label %25

25:                                               ; preds = %23, %Wln_ObjFanin.exit
  %.val = phi ptr [ %.val.pre, %23 ], [ %.val30, %Wln_ObjFanin.exit ]
  %indvars.iv.next = add nuw nsw i64 %indvars.iv, 1
  %26 = getelementptr inbounds %struct.Wln_Vec_t_, ptr %.val, i64 %7, i32 1
  %27 = load i32, ptr %26, align 4, !tbaa !43
  %28 = sext i32 %27 to i64
  %29 = icmp slt i64 %indvars.iv.next, %28
  br i1 %29, label %.lr.ph, label %.critedge, !llvm.loop !95

.critedge:                                        ; preds = %25, %.preheader
  %30 = tail call i32 @Wln_ObjDup(ptr noundef %0, ptr noundef nonnull %1, i32 noundef %2)
  br label %31

31:                                               ; preds = %5, %3, %.critedge
  %.0 = phi i32 [ %30, %.critedge ], [ 0, %3 ], [ %9, %5 ]
  ret i32 %.0
}